target datalayout = "e-m:e-p270:32:32-p271:32:32-p272:64:64-i64:64-i128:128-f80:128-n8:16:32:64-S128"
target triple = "x86_64-pc-linux-gnu"

@.str.44 = private unnamed_addr constant [18 x i8] c"GIT_CONFIG_GLOBAL\00", align 1
@.str.45 = private unnamed_addr constant [13 x i8] c"~/.gitconfig\00", align 1
@.str.46 = private unnamed_addr constant [7 x i8] c"config\00", align 1

; Function Attrs: inlinehint nounwind uwtable
define internal ptr @xstrdup_or_null(ptr noundef %0) #6 {
  %2 = alloca ptr, align 8
  store ptr %0, ptr %2, align 8, !tbaa !4
  %3 = load ptr, ptr %2, align 8, !tbaa !4
  %4 = icmp ne ptr %3, null
  br i1 %4, label %5, label %8

5:                                                ; preds = %1
  %6 = load ptr, ptr %2, align 8, !tbaa !4
  %7 = call ptr @xstrdup(ptr noundef %6)
  br label %9

8:                                                ; preds = %1
  br label %9

9:                                                ; preds = %8, %5
  %10 = phi ptr [ %7, %5 ], [ null, %8 ]
  ret ptr %10
}

; Function Attrs: nounwind uwtable
define dso_local void @git_global_config_paths(ptr noundef %0, ptr noundef %1) #0 {
  %3 = alloca ptr, align 8
  %4 = alloca ptr, align 8
  %5 = alloca ptr, align 8
  %6 = alloca ptr, align 8
  store ptr %0, ptr %3, align 8, !tbaa !15
  store ptr %1, ptr %4, align 8, !tbaa !15
  call void @llvm.lifetime.start.p0(i64 8, ptr %5) #13
  %7 = call ptr @getenv(ptr noundef @.str.44) #13
  %8 = call ptr @xstrdup_or_null(ptr noundef %7)
  store ptr %8, ptr %5, align 8, !tbaa !4
  call void @llvm.lifetime.start.p0(i64 8, ptr %6) #13
  store ptr null, ptr %6, align 8, !tbaa !4
  %9 = load ptr, ptr %5, align 8, !tbaa !4
  %10 = icmp ne ptr %9, null
  br i1 %10, label %14, label %11

11:                                               ; preds = %2
  %12 = call ptr @interpolate_path(ptr noundef @.str.45, i32 noundef 0)
  store ptr %12, ptr %5, align 8, !tbaa !4
  %13 = call ptr @xdg_config_home(ptr noundef @.str.46)
  store ptr %13, ptr %6, align 8, !tbaa !4
  br label %14

14:                                               ; preds = %11, %2
  %15 = load ptr, ptr %5, align 8, !tbaa !4
  %16 = load ptr, ptr %3, align 8, !tbaa !15
  store ptr %15, ptr %16, align 8, !tbaa !4
  %17 = load ptr, ptr %6, align 8, !tbaa !4
  %18 = load ptr, ptr %4, align 8, !tbaa !15
  store ptr %17, ptr %18, align 8, !tbaa !4
  call void @llvm.lifetime.end.p0(i64 8, ptr %6) #13
  call void @llvm.lifetime.end.p0(i64 8, ptr %5) #13
  ret void
}

; Function Attrs: nounwind uwtable
define dso_local ptr @git_global_config() #0 {
  %1 = alloca ptr, align 8
  %2 = alloca ptr, align 8
  %3 = alloca ptr, align 8
  %4 = alloca i32, align 4
  call void @llvm.lifetime.start.p0(i64 8, ptr %2) #13
  call void @llvm.lifetime.start.p0(i64 8, ptr %3) #13
  call void @git_global_config_paths(ptr noundef %2, ptr noundef %3)
  %5 = load ptr, ptr %2, align 8, !tbaa !4
  %6 = icmp ne ptr %5, null
  br i1 %6, label %9, label %7

7:                                                ; preds = %0
  %8 = load ptr, ptr %3, align 8, !tbaa !4
  call void @free(ptr noundef %8) #13
  store ptr null, ptr %1, align 8
  store i32 1, ptr %4, align 4
  br label %26

9:                                                ; preds = %0
  %10 = load ptr, ptr %2, align 8, !tbaa !4
  %11 = call i32 @access_or_warn(ptr noundef %10, i32 noundef 4, i32 noundef 0)
  %12 = icmp ne i32 %11, 0
  br i1 %12, label %13, label %23

13:                                               ; preds = %9
  %14 = load ptr, ptr %3, align 8, !tbaa !4
  %15 = icmp ne ptr %14, null
  br i1 %15, label %16, label %23

16:                                               ; preds = %13
  %17 = load ptr, ptr %3, align 8, !tbaa !4
  %18 = call i32 @access_or_warn(ptr noundef %17, i32 noundef 4, i32 noundef 0)
  %19 = icmp ne i32 %18, 0
  br i1 %19, label %23, label %20

20:                                               ; preds = %16
  %21 = load ptr, ptr %2, align 8, !tbaa !4
  call void @free(ptr noundef %21) #13
  %22 = load ptr, ptr %3, align 8, !tbaa !4
  store ptr %22, ptr %1, align 8
  store i32 1, ptr %4, align 4
  br label %26

23:                                               ; preds = %16, %13, %9
  %24 = load ptr, ptr %3, align 8, !tbaa !4
  call void @free(ptr noundef %24) #13
  %25 = load ptr, ptr %2, align 8, !tbaa !4
  store ptr %25, ptr %1, align 8
  store i32 1, ptr %4, align 4
  br label %26

26:                                               ; preds = %23, %20, %7
  call void @llvm.lifetime.end.p0(i64 8, ptr %3) #13
  call void @llvm.lifetime.end.p0(i64 8, ptr %2) #13
  %27 = load ptr, ptr %1, align 8
  ret ptr %27
}