; Function Attrs: nounwind uwtable
define dso_local ptr @git_global_config() local_unnamed_addr #0 {
  %1 = tail call ptr @getenv(ptr noundef nonnull @.str.44) #30
  %.not.i.i = icmp eq ptr %1, null
  br i1 %.not.i.i, label %git_global_config_paths.exit, label %xstrdup_or_null.exit.i

xstrdup_or_null.exit.i:                           ; preds = %0
  %2 = tail call ptr @xstrdup(ptr noundef nonnull %1) #30
  %.not.i = icmp eq ptr %2, null
  br i1 %.not.i, label %git_global_config_paths.exit, label %git_global_config_paths.exit.thread

git_global_config_paths.exit:                     ; preds = %0, %xstrdup_or_null.exit.i
  %3 = tail call ptr @interpolate_path(ptr noundef nonnull @.str.45, i32 noundef 0) #30
  %4 = tail call ptr @xdg_config_home(ptr noundef nonnull @.str.46) #30
  %.not = icmp eq ptr %3, null
  br i1 %.not, label %11, label %git_global_config_paths.exit.thread

git_global_config_paths.exit.thread:              ; preds = %xstrdup_or_null.exit.i, %git_global_config_paths.exit
  %.0.i15 = phi ptr [ %4, %git_global_config_paths.exit ], [ null, %xstrdup_or_null.exit.i ]
  %.05.i14 = phi ptr [ %3, %git_global_config_paths.exit ], [ %2, %xstrdup_or_null.exit.i ]
  %5 = tail call i32 @access_or_warn(ptr noundef nonnull %.05.i14, i32 noundef 4, i32 noundef 0) #30
  %6 = icmp ne i32 %5, 0
  %7 = icmp ne ptr %.0.i15, null
  %or.cond = select i1 %6, i1 %7, i1 false
  br i1 %or.cond, label %8, label %10

8:                                                ; preds = %git_global_config_paths.exit.thread
  %9 = tail call i32 @access_or_warn(ptr noundef nonnull %.0.i15, i32 noundef 4, i32 noundef 0) #30
  %.not4 = icmp eq i32 %9, 0
  br i1 %.not4, label %11, label %10

10:                                               ; preds = %8, %git_global_config_paths.exit.thread
  br label %11

11:                                               ; preds = %8, %git_global_config_paths.exit, %10
  %.0.i15.sink = phi ptr [ %.0.i15, %10 ], [ %4, %git_global_config_paths.exit ], [ %.05.i14, %8 ]
  %.0 = phi ptr [ %.05.i14, %10 ], [ null, %git_global_config_paths.exit ], [ %.0.i15, %8 ]
  tail call void @free(ptr noundef %.0.i15.sink) #30
  ret ptr %.0
}